; ModuleID = '24/2652.c'
source_filename = "24/2652.c"
target datalayout = "e-m:e-p270:32:32-p271:32:32-p272:64:64-i64:64-f80:128-n8:16:32:64-S128"
target triple = "x86_64-pc-linux-gnu"

@.str = private unnamed_addr constant [3 x i8] c"%d\00", align 1
@.str.1 = private unnamed_addr constant [3 x i8] c"%s\00", align 1
@.str.2 = private unnamed_addr constant [4 x i8] c"%s\0A\00", align 1

; Function Attrs: noinline nounwind uwtable
define dso_local i32 @main() #0 {
  %1 = alloca i32, align 4
  %2 = alloca i32, align 4
  %3 = alloca i32, align 4
  %4 = alloca i32, align 4
  %5 = alloca i32, align 4
  %6 = alloca [100 x i32], align 16
  %7 = alloca [100 x i32], align 16
  %8 = alloca [100 x i8], align 16
  %9 = alloca [100 x [100 x i8]], align 16
  %10 = alloca [100 x [100 x i8]], align 16
  store i32 0, i32* %1, align 4
  %11 = call i32 (i8*, ...) @__isoc99_scanf(i8* getelementptr inbounds ([3 x i8], [3 x i8]* @.str, i64 0, i64 0), i32* %3)
  store i32 0, i32* %2, align 4
  br label %12

12:                                               ; preds = %47, %0
  %13 = load i32, i32* %2, align 4
  %14 = load i32, i32* %3, align 4
  %15 = icmp slt i32 %13, %14
  br i1 %15, label %16, label %50

16:                                               ; preds = %12
  %17 = load i32, i32* %2, align 4
  %18 = sext i32 %17 to i64
  %19 = getelementptr inbounds [100 x [100 x i8]], [100 x [100 x i8]]* %9, i64 0, i64 %18
  %20 = getelementptr inbounds [100 x i8], [100 x i8]* %19, i64 0, i64 0
  %21 = call i32 (i8*, ...) @__isoc99_scanf(i8* getelementptr inbounds ([3 x i8], [3 x i8]* @.str.1, i64 0, i64 0), i8* %20)
  %22 = load i32, i32* %2, align 4
  %23 = sext i32 %22 to i64
  %24 = getelementptr inbounds [100 x [100 x i8]], [100 x [100 x i8]]* %10, i64 0, i64 %23
  %25 = getelementptr inbounds [100 x i8], [100 x i8]* %24, i64 0, i64 0
  %26 = load i32, i32* %2, align 4
  %27 = sext i32 %26 to i64
  %28 = getelementptr inbounds [100 x [100 x i8]], [100 x [100 x i8]]* %9, i64 0, i64 %27
  %29 = getelementptr inbounds [100 x i8], [100 x i8]* %28, i64 0, i64 0
  %30 = call i8* @strcpy(i8* %25, i8* %29) #4
  %31 = load i32, i32* %2, align 4
  %32 = sext i32 %31 to i64
  %33 = getelementptr inbounds [100 x [100 x i8]], [100 x [100 x i8]]* %9, i64 0, i64 %32
  %34 = getelementptr inbounds [100 x i8], [100 x i8]* %33, i64 0, i64 0
  %35 = call i64 @strlen(i8* %34) #5
  %36 = trunc i64 %35 to i32
  %37 = load i32, i32* %2, align 4
  %38 = sext i32 %37 to i64
  %39 = getelementptr inbounds [100 x i32], [100 x i32]* %6, i64 0, i64 %38
  store i32 %36, i32* %39, align 4
  %40 = load i32, i32* %2, align 4
  %41 = sext i32 %40 to i64
  %42 = getelementptr inbounds [100 x i32], [100 x i32]* %6, i64 0, i64 %41
  %43 = load i32, i32* %42, align 4
  %44 = load i32, i32* %2, align 4
  %45 = sext i32 %44 to i64
  %46 = getelementptr inbounds [100 x i32], [100 x i32]* %7, i64 0, i64 %45
  store i32 %43, i32* %46, align 4
  br label %47

47:                                               ; preds = %16
  %48 = load i32, i32* %2, align 4
  %49 = add nsw i32 %48, 1
  store i32 %49, i32* %2, align 4
  br label %12

50:                                               ; preds = %12
  store i32 0, i32* %2, align 4
  br label %51

51:                                               ; preds = %114, %50
  %52 = load i32, i32* %2, align 4
  %53 = load i32, i32* %3, align 4
  %54 = icmp slt i32 %52, %53
  br i1 %54, label %55, label %117

55:                                               ; preds = %51
  %56 = load i32, i32* %2, align 4
  %57 = add nsw i32 %56, 1
  store i32 %57, i32* %5, align 4
  br label %58

58:                                               ; preds = %110, %55
  %59 = load i32, i32* %5, align 4
  %60 = load i32, i32* %3, align 4
  %61 = icmp slt i32 %59, %60
  br i1 %61, label %62, label %113

62:                                               ; preds = %58
  %63 = load i32, i32* %5, align 4
  %64 = sext i32 %63 to i64
  %65 = getelementptr inbounds [100 x i32], [100 x i32]* %6, i64 0, i64 %64
  %66 = load i32, i32* %65, align 4
  %67 = load i32, i32* %2, align 4
  %68 = sext i32 %67 to i64
  %69 = getelementptr inbounds [100 x i32], [100 x i32]* %6, i64 0, i64 %68
  %70 = load i32, i32* %69, align 4
  %71 = icmp sgt i32 %66, %70
  br i1 %71, label %72, label %109

72:                                               ; preds = %62
  %73 = load i32, i32* %2, align 4
  %74 = sext i32 %73 to i64
  %75 = getelementptr inbounds [100 x i32], [100 x i32]* %6, i64 0, i64 %74
  %76 = load i32, i32* %75, align 4
  store i32 %76, i32* %4, align 4
  %77 = load i32, i32* %5, align 4
  %78 = sext i32 %77 to i64
  %79 = getelementptr inbounds [100 x i32], [100 x i32]* %6, i64 0, i64 %78
  %80 = load i32, i32* %79, align 4
  %81 = load i32, i32* %2, align 4
  %82 = sext i32 %81 to i64
  %83 = getelementptr inbounds [100 x i32], [100 x i32]* %6, i64 0, i64 %82
  store i32 %80, i32* %83, align 4
  %84 = load i32, i32* %4, align 4
  %85 = load i32, i32* %5, align 4
  %86 = sext i32 %85 to i64
  %87 = getelementptr inbounds [100 x i32], [100 x i32]* %6, i64 0, i64 %86
  store i32 %84, i32* %87, align 4
  %88 = getelementptr inbounds [100 x i8], [100 x i8]* %8, i64 0, i64 0
  %89 = load i32, i32* %2, align 4
  %90 = sext i32 %89 to i64
  %91 = getelementptr inbounds [100 x [100 x i8]], [100 x [100 x i8]]* %10, i64 0, i64 %90
  %92 = getelementptr inbounds [100 x i8], [100 x i8]* %91, i64 0, i64 0
  %93 = call i8* @strcpy(i8* %88, i8* %92) #4
  %94 = load i32, i32* %2, align 4
  %95 = sext i32 %94 to i64
  %96 = getelementptr inbounds [100 x [100 x i8]], [100 x [100 x i8]]* %10, i64 0, i64 %95
  %97 = getelementptr inbounds [100 x i8], [100 x i8]* %96, i64 0, i64 0
  %98 = load i32, i32* %5, align 4
  %99 = sext i32 %98 to i64
  %100 = getelementptr inbounds [100 x [100 x i8]], [100 x [100 x i8]]* %10, i64 0, i64 %99
  %101 = getelementptr inbounds [100 x i8], [100 x i8]* %100, i64 0, i64 0
  %102 = call i8* @strcpy(i8* %97, i8* %101) #4
  %103 = load i32, i32* %5, align 4
  %104 = sext i32 %103 to i64
  %105 = getelementptr inbounds [100 x [100 x i8]], [100 x [100 x i8]]* %10, i64 0, i64 %104
  %106 = getelementptr inbounds [100 x i8], [100 x i8]* %105, i64 0, i64 0
  %107 = getelementptr inbounds [100 x i8], [100 x i8]* %8, i64 0, i64 0
  %108 = call i8* @strcpy(i8* %106, i8* %107) #4
  br label %109

109:                                              ; preds = %72, %62
  br label %110

110:                                              ; preds = %109
  %111 = load i32, i32* %5, align 4
  %112 = add nsw i32 %111, 1
  store i32 %112, i32* %5, align 4
  br label %58

113:                                              ; preds = %58
  br label %114

114:                                              ; preds = %113
  %115 = load i32, i32* %2, align 4
  %116 = add nsw i32 %115, 1
  store i32 %116, i32* %2, align 4
  br label %51

117:                                              ; preds = %51
  %118 = getelementptr inbounds [100 x i32], [100 x i32]* %6, i64 0, i64 0
  %119 = load i32, i32* %118, align 16
  %120 = getelementptr inbounds [100 x i32], [100 x i32]* %6, i64 0, i64 1
  %121 = load i32, i32* %120, align 4
  %122 = icmp sgt i32 %119, %121
  br i1 %122, label %123, label %127

123:                                              ; preds = %117
  %124 = getelementptr inbounds [100 x [100 x i8]], [100 x [100 x i8]]* %10, i64 0, i64 0
  %125 = getelementptr inbounds [100 x i8], [100 x i8]* %124, i64 0, i64 0
  %126 = call i32 (i8*, ...) @printf(i8* getelementptr inbounds ([4 x i8], [4 x i8]* @.str.2, i64 0, i64 0), i8* %125)
  br label %151

127:                                              ; preds = %117
  store i32 0, i32* %2, align 4
  br label %128

128:                                              ; preds = %147, %127
  %129 = load i32, i32* %2, align 4
  %130 = load i32, i32* %3, align 4
  %131 = icmp slt i32 %129, %130
  br i1 %131, label %132, label %150

132:                                              ; preds = %128
  %133 = load i32, i32* %2, align 4
  %134 = sext i32 %133 to i64
  %135 = getelementptr inbounds [100 x i32], [100 x i32]* %7, i64 0, i64 %134
  %136 = load i32, i32* %135, align 4
  %137 = getelementptr inbounds [100 x i32], [100 x i32]* %6, i64 0, i64 0
  %138 = load i32, i32* %137, align 16
  %139 = icmp eq i32 %136, %138
  br i1 %139, label %140, label %146

140:                                              ; preds = %132
  %141 = load i32, i32* %2, align 4
  %142 = sext i32 %141 to i64
  %143 = getelementptr inbounds [100 x [100 x i8]], [100 x [100 x i8]]* %9, i64 0, i64 %142
  %144 = getelementptr inbounds [100 x i8], [100 x i8]* %143, i64 0, i64 0
  %145 = call i32 (i8*, ...) @printf(i8* getelementptr inbounds ([4 x i8], [4 x i8]* @.str.2, i64 0, i64 0), i8* %144)
  br label %150

146:                                              ; preds = %132
  br label %147

147:                                              ; preds = %146
  %148 = load i32, i32* %2, align 4
  %149 = add nsw i32 %148, 1
  store i32 %149, i32* %2, align 4
  br label %128

150:                                              ; preds = %140, %128
  br label %151

151:                                              ; preds = %150, %123
  %152 = load i32, i32* %3, align 4
  %153 = sub nsw i32 %152, 1
  %154 = sext i32 %153 to i64
  %155 = getelementptr inbounds [100 x i32], [100 x i32]* %6, i64 0, i64 %154
  %156 = load i32, i32* %155, align 4
  %157 = load i32, i32* %3, align 4
  %158 = sub nsw i32 %157, 2
  %159 = sext i32 %158 to i64
  %160 = getelementptr inbounds [100 x i32], [100 x i32]* %6, i64 0, i64 %159
  %161 = load i32, i32* %160, align 4
  %162 = icmp slt i32 %156, %161
  br i1 %162, label %163, label %170

163:                                              ; preds = %151
  %164 = load i32, i32* %3, align 4
  %165 = sub nsw i32 %164, 1
  %166 = sext i32 %165 to i64
  %167 = getelementptr inbounds [100 x [100 x i8]], [100 x [100 x i8]]* %10, i64 0, i64 %166
  %168 = getelementptr inbounds [100 x i8], [100 x i8]* %167, i64 0, i64 0
  %169 = call i32 (i8*, ...) @printf(i8* getelementptr inbounds ([4 x i8], [4 x i8]* @.str.2, i64 0, i64 0), i8* %168)
  br label %197

170:                                              ; preds = %151
  store i32 0, i32* %2, align 4
  br label %171

171:                                              ; preds = %193, %170
  %172 = load i32, i32* %2, align 4
  %173 = load i32, i32* %3, align 4
  %174 = icmp slt i32 %172, %173
  br i1 %174, label %175, label %196

175:                                              ; preds = %171
  %176 = load i32, i32* %2, align 4
  %177 = sext i32 %176 to i64
  %178 = getelementptr inbounds [100 x i32], [100 x i32]* %7, i64 0, i64 %177
  %179 = load i32, i32* %178, align 4
  %180 = load i32, i32* %3, align 4
  %181 = sub nsw i32 %180, 1
  %182 = sext i32 %181 to i64
  %183 = getelementptr inbounds [100 x i32], [100 x i32]* %6, i64 0, i64 %182
  %184 = load i32, i32* %183, align 4
  %185 = icmp eq i32 %179, %184
  br i1 %185, label %186, label %192

186:                                              ; preds = %175
  %187 = load i32, i32* %2, align 4
  %188 = sext i32 %187 to i64
  %189 = getelementptr inbounds [100 x [100 x i8]], [100 x [100 x i8]]* %9, i64 0, i64 %188
  %190 = getelementptr inbounds [100 x i8], [100 x i8]* %189, i64 0, i64 0
  %191 = call i32 (i8*, ...) @printf(i8* getelementptr inbounds ([4 x i8], [4 x i8]* @.str.2, i64 0, i64 0), i8* %190)
  br label %196

192:                                              ; preds = %175
  br label %193

193:                                              ; preds = %192
  %194 = load i32, i32* %2, align 4
  %195 = add nsw i32 %194, 1
  store i32 %195, i32* %2, align 4
  br label %171

196:                                              ; preds = %186, %171
  br label %197

197:                                              ; preds = %196, %163
  ret i32 0
}

declare dso_local i32 @__isoc99_scanf(i8*, ...) #1

; Function Attrs: nounwind
declare dso_local i8* @strcpy(i8*, i8*) #2

; Function Attrs: nounwind readonly
declare dso_local i64 @strlen(i8*) #3

declare dso_local i32 @printf(i8*, ...) #1


!llvm.module.flags = !{!0}
!llvm.ident = !{!1}

!0 = !{i32 1, !"wchar_size", i32 4}
!1 = !{!"clang version 10.0.0-4ubuntu1 "}
