; ModuleID = 'source-C-CXX/23/2652.c'
source_filename = "source-C-CXX/23/2652.c"
target datalayout = "e-m:e-p270:32:32-p271:32:32-p272:64:64-i64:64-f80:128-n8:16:32:64-S128"
target triple = "x86_64-pc-linux-gnu"

@.str = private unnamed_addr constant [3 x i8] c"%d\00", align 1
@.str.1 = private unnamed_addr constant [3 x i8] c"%s\00", align 1

; Function Attrs: nofree nounwind sspstrong uwtable
define dso_local i32 @main() local_unnamed_addr #0 {
  %1 = alloca i32, align 4
  %2 = alloca [100 x i32], align 16
  %3 = alloca [100 x i32], align 16
  %4 = alloca [100 x i8], align 16
  %5 = alloca [100 x [100 x i8]], align 16
  %6 = alloca [100 x [100 x i8]], align 16
  %7 = bitcast i32* %1 to i8*
  call void @llvm.lifetime.start.p0i8(i64 4, i8* nonnull %7) #6
  %8 = bitcast [100 x i32]* %2 to i8*
  call void @llvm.lifetime.start.p0i8(i64 400, i8* nonnull %8) #6
  %9 = bitcast [100 x i32]* %3 to i8*
  call void @llvm.lifetime.start.p0i8(i64 400, i8* nonnull %9) #6
  %10 = getelementptr inbounds [100 x i8], [100 x i8]* %4, i64 0, i64 0
  call void @llvm.lifetime.start.p0i8(i64 100, i8* nonnull %10) #6
  %11 = getelementptr inbounds [100 x [100 x i8]], [100 x [100 x i8]]* %5, i64 0, i64 0, i64 0
  call void @llvm.lifetime.start.p0i8(i64 10000, i8* nonnull %11) #6
  %12 = getelementptr inbounds [100 x [100 x i8]], [100 x [100 x i8]]* %6, i64 0, i64 0, i64 0
  call void @llvm.lifetime.start.p0i8(i64 10000, i8* nonnull %12) #6
  %13 = call i32 (i8*, ...) @__isoc99_scanf(i8* getelementptr inbounds ([3 x i8], [3 x i8]* @.str, i64 0, i64 0), i32* nonnull %1)
  %14 = load i32, i32* %1, align 4, !tbaa !5
  %15 = icmp sgt i32 %14, 0
  br i1 %15, label %21, label %59

16:                                               ; preds = %21
  %17 = icmp sgt i32 %32, 0
  br i1 %17, label %18, label %59

18:                                               ; preds = %16
  %19 = zext i32 %32 to i64
  %20 = zext i32 %32 to i64
  br label %38

21:                                               ; preds = %0, %21
  %22 = phi i64 [ %31, %21 ], [ 0, %0 ]
  %23 = getelementptr inbounds [100 x [100 x i8]], [100 x [100 x i8]]* %5, i64 0, i64 %22, i64 0
  %24 = call i32 (i8*, ...) @__isoc99_scanf(i8* getelementptr inbounds ([3 x i8], [3 x i8]* @.str.1, i64 0, i64 0), i8* nonnull %23)
  %25 = getelementptr inbounds [100 x [100 x i8]], [100 x [100 x i8]]* %6, i64 0, i64 %22, i64 0
  %26 = call i8* @strcpy(i8* noundef nonnull %25, i8* noundef nonnull %23) #6
  %27 = call i64 @strlen(i8* noundef nonnull %23) #7
  %28 = trunc i64 %27 to i32
  %29 = getelementptr inbounds [100 x i32], [100 x i32]* %2, i64 0, i64 %22
  store i32 %28, i32* %29, align 4, !tbaa !5
  %30 = getelementptr inbounds [100 x i32], [100 x i32]* %3, i64 0, i64 %22
  store i32 %28, i32* %30, align 4, !tbaa !5
  %31 = add nuw nsw i64 %22, 1
  %32 = load i32, i32* %1, align 4, !tbaa !5
  %33 = sext i32 %32 to i64
  %34 = icmp slt i64 %31, %33
  br i1 %34, label %21, label %16, !llvm.loop !9

35:                                               ; preds = %56, %38
  %36 = add nuw nsw i64 %40, 1
  %37 = icmp eq i64 %41, %20
  br i1 %37, label %59, label %38, !llvm.loop !11

38:                                               ; preds = %18, %35
  %39 = phi i64 [ 0, %18 ], [ %41, %35 ]
  %40 = phi i64 [ 1, %18 ], [ %36, %35 ]
  %41 = add nuw nsw i64 %39, 1
  %42 = getelementptr inbounds [100 x i32], [100 x i32]* %2, i64 0, i64 %39
  %43 = getelementptr inbounds [100 x [100 x i8]], [100 x [100 x i8]]* %6, i64 0, i64 %39, i64 0
  %44 = icmp ult i64 %41, %19
  br i1 %44, label %45, label %35

45:                                               ; preds = %38, %56
  %46 = phi i64 [ %57, %56 ], [ %40, %38 ]
  %47 = getelementptr inbounds [100 x i32], [100 x i32]* %2, i64 0, i64 %46
  %48 = load i32, i32* %47, align 4, !tbaa !5
  %49 = load i32, i32* %42, align 4, !tbaa !5
  %50 = icmp sgt i32 %48, %49
  br i1 %50, label %51, label %56

51:                                               ; preds = %45
  store i32 %48, i32* %42, align 4, !tbaa !5
  store i32 %49, i32* %47, align 4, !tbaa !5
  %52 = call i8* @strcpy(i8* noundef nonnull %10, i8* noundef nonnull %43) #6
  %53 = getelementptr inbounds [100 x [100 x i8]], [100 x [100 x i8]]* %6, i64 0, i64 %46, i64 0
  %54 = call i8* @strcpy(i8* noundef nonnull %43, i8* noundef nonnull %53) #6
  %55 = call i8* @strcpy(i8* noundef nonnull %53, i8* noundef nonnull %10) #6
  br label %56

56:                                               ; preds = %45, %51
  %57 = add nuw nsw i64 %46, 1
  %58 = icmp eq i64 %57, %20
  br i1 %58, label %35, label %45, !llvm.loop !12

59:                                               ; preds = %35, %0, %16
  %60 = phi i1 [ false, %16 ], [ false, %0 ], [ %17, %35 ]
  %61 = phi i32 [ %32, %16 ], [ %14, %0 ], [ %32, %35 ]
  %62 = getelementptr inbounds [100 x i32], [100 x i32]* %2, i64 0, i64 0
  %63 = load i32, i32* %62, align 16, !tbaa !5
  %64 = getelementptr inbounds [100 x i32], [100 x i32]* %2, i64 0, i64 1
  %65 = load i32, i32* %64, align 4, !tbaa !5
  %66 = icmp sgt i32 %63, %65
  br i1 %66, label %81, label %67

67:                                               ; preds = %59
  br i1 %60, label %68, label %84

68:                                               ; preds = %67
  %69 = zext i32 %61 to i64
  br label %70

70:                                               ; preds = %68, %78
  %71 = phi i64 [ 0, %68 ], [ %79, %78 ]
  %72 = getelementptr inbounds [100 x i32], [100 x i32]* %3, i64 0, i64 %71
  %73 = load i32, i32* %72, align 4, !tbaa !5
  %74 = icmp eq i32 %73, %63
  br i1 %74, label %75, label %78

75:                                               ; preds = %70
  %76 = and i64 %71, 4294967295
  %77 = getelementptr inbounds [100 x [100 x i8]], [100 x [100 x i8]]* %5, i64 0, i64 %76, i64 0
  br label %81

78:                                               ; preds = %70
  %79 = add nuw nsw i64 %71, 1
  %80 = icmp eq i64 %79, %69
  br i1 %80, label %84, label %70, !llvm.loop !13

81:                                               ; preds = %59, %75
  %82 = phi i8* [ %77, %75 ], [ %12, %59 ]
  %83 = call i32 @puts(i8* nonnull %82)
  br label %84

84:                                               ; preds = %78, %81, %67
  %85 = load i32, i32* %1, align 4, !tbaa !5
  %86 = add nsw i32 %85, -1
  %87 = sext i32 %86 to i64
  %88 = getelementptr inbounds [100 x i32], [100 x i32]* %2, i64 0, i64 %87
  %89 = load i32, i32* %88, align 4, !tbaa !5
  %90 = add nsw i32 %85, -2
  %91 = sext i32 %90 to i64
  %92 = getelementptr inbounds [100 x i32], [100 x i32]* %2, i64 0, i64 %91
  %93 = load i32, i32* %92, align 4, !tbaa !5
  %94 = icmp slt i32 %89, %93
  br i1 %94, label %99, label %95

95:                                               ; preds = %84
  %96 = icmp sgt i32 %85, 0
  br i1 %96, label %97, label %115

97:                                               ; preds = %95
  %98 = zext i32 %85 to i64
  br label %101

99:                                               ; preds = %84
  %100 = getelementptr inbounds [100 x [100 x i8]], [100 x [100 x i8]]* %6, i64 0, i64 %87, i64 0
  br label %112

101:                                              ; preds = %97, %109
  %102 = phi i64 [ 0, %97 ], [ %110, %109 ]
  %103 = getelementptr inbounds [100 x i32], [100 x i32]* %3, i64 0, i64 %102
  %104 = load i32, i32* %103, align 4, !tbaa !5
  %105 = icmp eq i32 %104, %89
  br i1 %105, label %106, label %109

106:                                              ; preds = %101
  %107 = and i64 %102, 4294967295
  %108 = getelementptr inbounds [100 x [100 x i8]], [100 x [100 x i8]]* %5, i64 0, i64 %107, i64 0
  br label %112

109:                                              ; preds = %101
  %110 = add nuw nsw i64 %102, 1
  %111 = icmp eq i64 %110, %98
  br i1 %111, label %115, label %101, !llvm.loop !14

112:                                              ; preds = %99, %106
  %113 = phi i8* [ %108, %106 ], [ %100, %99 ]
  %114 = call i32 @puts(i8* nonnull %113)
  br label %115

115:                                              ; preds = %109, %112, %95
  call void @llvm.lifetime.end.p0i8(i64 10000, i8* nonnull %12) #6
  call void @llvm.lifetime.end.p0i8(i64 10000, i8* nonnull %11) #6
  call void @llvm.lifetime.end.p0i8(i64 100, i8* nonnull %10) #6
  call void @llvm.lifetime.end.p0i8(i64 400, i8* nonnull %9) #6
  call void @llvm.lifetime.end.p0i8(i64 400, i8* nonnull %8) #6
  call void @llvm.lifetime.end.p0i8(i64 4, i8* nonnull %7) #6
  ret i32 0
}

; Function Attrs: argmemonly mustprogress nofree nosync nounwind willreturn
declare void @llvm.lifetime.start.p0i8(i64 immarg, i8* nocapture) #1

; Function Attrs: nofree nounwind
declare noundef i32 @__isoc99_scanf(i8* nocapture noundef readonly, ...) local_unnamed_addr #2

; Function Attrs: argmemonly mustprogress nofree nounwind willreturn
declare i8* @strcpy(i8* noalias returned writeonly, i8* noalias nocapture readonly) local_unnamed_addr #3

; Function Attrs: argmemonly mustprogress nofree nounwind readonly willreturn
declare i64 @strlen(i8* nocapture) local_unnamed_addr #4

; Function Attrs: argmemonly mustprogress nofree nosync nounwind willreturn
declare void @llvm.lifetime.end.p0i8(i64 immarg, i8* nocapture) #1

; Function Attrs: nofree nounwind
declare noundef i32 @puts(i8* nocapture noundef readonly) local_unnamed_addr #5


!llvm.module.flags = !{!0, !1, !2, !3}
!llvm.ident = !{!4}

!0 = !{i32 1, !"wchar_size", i32 4}
!1 = !{i32 7, !"PIC Level", i32 2}
!2 = !{i32 7, !"PIE Level", i32 2}
!3 = !{i32 7, !"uwtable", i32 1}
!4 = !{!"clang version 13.0.0"}
!5 = !{!6, !6, i64 0}
!6 = !{!"int", !7, i64 0}
!7 = !{!"omnipotent char", !8, i64 0}
!8 = !{!"Simple C/C++ TBAA"}
!9 = distinct !{!9, !10}
!10 = !{!"llvm.loop.mustprogress"}
!11 = distinct !{!11, !10}
!12 = distinct !{!12, !10}
!13 = distinct !{!13, !10}
!14 = distinct !{!14, !10}
